target datalayout = "e-m:e-p270:32:32-p271:32:32-p272:64:64-i64:64-i128:128-f80:128-n8:16:32:64-S128"
target triple = "x86_64-pc-linux-gnu"

%struct.VuDev = type { i32, i32, ptr, ptr, %struct.VuDevInflightInfo, i32, %union.pthread_mutex_t, i32, i64, ptr, i64, i64, i8, i16, ptr, ptr, ptr, ptr, ptr, i32, i8 }
%struct.VuDevInflightInfo = type { i32, ptr, i64 }
%union.pthread_mutex_t = type { %struct.__pthread_mutex_s }
%struct.__pthread_mutex_s = type { i32, i32, i32, i32, i32, i16, i16, %struct.__pthread_internal_list }
%struct.__pthread_internal_list = type { ptr, ptr }
%struct.VuVirtq = type { %struct.VuRing, ptr, ptr, i16, i64, i16, i16, i16, i16, i8, i8, i32, ptr, i32, i32, i32, i32, i8, %struct.vhost_vring_addr }
%struct.VuRing = type { i32, ptr, ptr, ptr, i64, i32 }
%struct.vhost_vring_addr = type { i32, i32, i64, i64, i64, i64 }
%struct.vring_avail = type { i16, i16, [0 x i16] }
%struct.vring_used = type { i16, i16, [0 x %struct.vring_used_elem] }
%struct.vring_used_elem = type { i32, i32 }

@.str.40 = private unnamed_addr constant [50 x i8] c"../qemu/subprojects/libvhost-user/libvhost-user.c\00", align 1
@.str.52 = private unnamed_addr constant [10 x i8] c"fbit < 64\00", align 1
@__PRETTY_FUNCTION__.has_feature = private unnamed_addr constant [42 x i8] c"_Bool has_feature(uint64_t, unsigned int)\00", align 1

; Function Attrs: inlinehint nounwind uwtable
define internal zeroext i16 @__uint16_identity(i16 noundef zeroext %0) #3 {
  %2 = alloca i16, align 2
  store i16 %0, ptr %2, align 2
  %3 = load i16, ptr %2, align 2
  ret i16 %3
}

; Function Attrs: inlinehint nounwind uwtable
define internal zeroext i1 @has_feature(i64 noundef %0, i32 noundef %1) #3 {
  %3 = alloca i64, align 8
  %4 = alloca i32, align 4
  store i64 %0, ptr %3, align 8
  store i32 %1, ptr %4, align 4
  %5 = load i32, ptr %4, align 4
  %6 = icmp ult i32 %5, 64
  br i1 %6, label %7, label %8

7:                                                ; preds = %2
  br label %9

8:                                                ; preds = %2
  call void @__assert_fail(ptr noundef @.str.52, ptr noundef @.str.40, i32 noundef 109, ptr noundef @__PRETTY_FUNCTION__.has_feature) #15
  unreachable

9:                                                ; preds = %7
  %10 = load i64, ptr %3, align 8
  %11 = load i32, ptr %4, align 4
  %12 = zext i32 %11 to i64
  %13 = shl i64 1, %12
  %14 = and i64 %10, %13
  %15 = icmp ne i64 %14, 0
  %16 = xor i1 %15, true
  %17 = xor i1 %16, true
  ret i1 %17
}

; Function Attrs: inlinehint nounwind uwtable
define internal void @vring_used_flags_set_bit(ptr noundef %0, i32 noundef %1) #3 {
  %3 = alloca ptr, align 8
  %4 = alloca i32, align 4
  %5 = alloca ptr, align 8
  store ptr %0, ptr %3, align 8
  store i32 %1, ptr %4, align 4
  call void @llvm.lifetime.start.p0(i64 8, ptr %5) #13
  store ptr null, ptr %5, align 8, !annotation !4
  %6 = load ptr, ptr %3, align 8
  %7 = getelementptr inbounds nuw %struct.VuVirtq, ptr %6, i32 0, i32 0
  %8 = getelementptr inbounds nuw %struct.VuRing, ptr %7, i32 0, i32 3
  %9 = load ptr, ptr %8, align 8
  %10 = getelementptr inbounds nuw i8, ptr %9, i64 0
  store ptr %10, ptr %5, align 8
  %11 = load ptr, ptr %5, align 8
  %12 = load i16, ptr %11, align 2
  %13 = call zeroext i16 @__uint16_identity(i16 noundef zeroext %12)
  %14 = zext i16 %13 to i32
  %15 = load i32, ptr %4, align 4
  %16 = or i32 %14, %15
  %17 = trunc i32 %16 to i16
  %18 = call zeroext i16 @__uint16_identity(i16 noundef zeroext %17)
  %19 = load ptr, ptr %5, align 8
  store i16 %18, ptr %19, align 2
  call void @llvm.lifetime.end.p0(i64 8, ptr %5) #13
  ret void
}

; Function Attrs: inlinehint nounwind uwtable
define internal void @vring_used_flags_unset_bit(ptr noundef %0, i32 noundef %1) #3 {
  %3 = alloca ptr, align 8
  %4 = alloca i32, align 4
  %5 = alloca ptr, align 8
  store ptr %0, ptr %3, align 8
  store i32 %1, ptr %4, align 4
  call void @llvm.lifetime.start.p0(i64 8, ptr %5) #13
  store ptr null, ptr %5, align 8, !annotation !4
  %6 = load ptr, ptr %3, align 8
  %7 = getelementptr inbounds nuw %struct.VuVirtq, ptr %6, i32 0, i32 0
  %8 = getelementptr inbounds nuw %struct.VuRing, ptr %7, i32 0, i32 3
  %9 = load ptr, ptr %8, align 8
  %10 = getelementptr inbounds nuw i8, ptr %9, i64 0
  store ptr %10, ptr %5, align 8
  %11 = load ptr, ptr %5, align 8
  %12 = load i16, ptr %11, align 2
  %13 = call zeroext i16 @__uint16_identity(i16 noundef zeroext %12)
  %14 = zext i16 %13 to i32
  %15 = load i32, ptr %4, align 4
  %16 = xor i32 %15, -1
  %17 = and i32 %14, %16
  %18 = trunc i32 %17 to i16
  %19 = call zeroext i16 @__uint16_identity(i16 noundef zeroext %18)
  %20 = load ptr, ptr %5, align 8
  store i16 %19, ptr %20, align 2
  call void @llvm.lifetime.end.p0(i64 8, ptr %5) #13
  ret void
}

; Function Attrs: inlinehint nounwind uwtable
define internal void @vring_set_avail_event(ptr noundef %0, i16 noundef zeroext %1) #3 {
  %3 = alloca ptr, align 8
  %4 = alloca i16, align 2
  %5 = alloca i16, align 2
  %6 = alloca i32, align 4
  store ptr %0, ptr %3, align 8
  store i16 %1, ptr %4, align 2
  call void @llvm.lifetime.start.p0(i64 2, ptr %5) #13
  %7 = load i16, ptr %4, align 2
  %8 = call zeroext i16 @__uint16_identity(i16 noundef zeroext %7)
  store i16 %8, ptr %5, align 2
  %9 = load ptr, ptr %3, align 8
  %10 = getelementptr inbounds nuw %struct.VuVirtq, ptr %9, i32 0, i32 10
  %11 = load i8, ptr %10, align 1, !range !5, !noundef !6
  %12 = trunc i8 %11 to i1
  br i1 %12, label %14, label %13

13:                                               ; preds = %2
  store i32 1, ptr %6, align 4
  br label %26

14:                                               ; preds = %2
  %15 = load ptr, ptr %3, align 8
  %16 = getelementptr inbounds nuw %struct.VuVirtq, ptr %15, i32 0, i32 0
  %17 = getelementptr inbounds nuw %struct.VuRing, ptr %16, i32 0, i32 3
  %18 = load ptr, ptr %17, align 8
  %19 = getelementptr inbounds nuw %struct.vring_used, ptr %18, i32 0, i32 2
  %20 = load ptr, ptr %3, align 8
  %21 = getelementptr inbounds nuw %struct.VuVirtq, ptr %20, i32 0, i32 0
  %22 = getelementptr inbounds nuw %struct.VuRing, ptr %21, i32 0, i32 0
  %23 = load i32, ptr %22, align 8
  %24 = zext i32 %23 to i64
  %25 = getelementptr inbounds nuw [0 x %struct.vring_used_elem], ptr %19, i64 0, i64 %24
  call void @llvm.memcpy.p0.p0.i64(ptr align 4 %25, ptr align 2 %5, i64 2, i1 false)
  store i32 0, ptr %6, align 4
  br label %26

26:                                               ; preds = %14, %13
  call void @llvm.lifetime.end.p0(i64 2, ptr %5) #13
  %27 = load i32, ptr %6, align 4
  switch i32 %27, label %29 [
    i32 0, label %28
    i32 1, label %28
  ]

28:                                               ; preds = %26, %26
  ret void

29:                                               ; preds = %26
  unreachable
}

; Function Attrs: inlinehint nounwind uwtable
define internal zeroext i16 @vring_avail_idx(ptr noundef %0) #3 {
  %2 = alloca ptr, align 8
  store ptr %0, ptr %2, align 8
  %3 = load ptr, ptr %2, align 8
  %4 = getelementptr inbounds nuw %struct.VuVirtq, ptr %3, i32 0, i32 0
  %5 = getelementptr inbounds nuw %struct.VuRing, ptr %4, i32 0, i32 2
  %6 = load ptr, ptr %5, align 8
  %7 = getelementptr inbounds nuw %struct.vring_avail, ptr %6, i32 0, i32 1
  %8 = load i16, ptr %7, align 2
  %9 = call zeroext i16 @__uint16_identity(i16 noundef zeroext %8)
  %10 = load ptr, ptr %2, align 8
  %11 = getelementptr inbounds nuw %struct.VuVirtq, ptr %10, i32 0, i32 6
  store i16 %9, ptr %11, align 2
  %12 = load ptr, ptr %2, align 8
  %13 = getelementptr inbounds nuw %struct.VuVirtq, ptr %12, i32 0, i32 6
  %14 = load i16, ptr %13, align 2
  ret i16 %14
}

; Function Attrs: inlinehint nounwind uwtable
define internal zeroext i1 @vu_has_feature(ptr noundef %0, i32 noundef %1) #3 {
  %3 = alloca ptr, align 8
  %4 = alloca i32, align 4
  store ptr %0, ptr %3, align 8
  store i32 %1, ptr %4, align 4
  %5 = load ptr, ptr %3, align 8
  %6 = getelementptr inbounds nuw %struct.VuDev, ptr %5, i32 0, i32 10
  %7 = load i64, ptr %6, align 8
  %8 = load i32, ptr %4, align 4
  %9 = call zeroext i1 @has_feature(i64 noundef %7, i32 noundef %8)
  ret i1 %9
}

; Function Attrs: nounwind uwtable
define dso_local void @vu_queue_set_notification(ptr noundef %0, ptr noundef %1, i32 noundef %2) #0 {
  %4 = alloca ptr, align 8
  %5 = alloca ptr, align 8
  %6 = alloca i32, align 4
  store ptr %0, ptr %4, align 8
  store ptr %1, ptr %5, align 8
  store i32 %2, ptr %6, align 4
  %7 = load i32, ptr %6, align 4
  %8 = icmp ne i32 %7, 0
  %9 = load ptr, ptr %5, align 8
  %10 = getelementptr inbounds nuw %struct.VuVirtq, ptr %9, i32 0, i32 10
  %11 = zext i1 %8 to i8
  store i8 %11, ptr %10, align 1
  %12 = load ptr, ptr %4, align 8
  %13 = call zeroext i1 @vu_has_feature(ptr noundef %12, i32 noundef 29)
  br i1 %13, label %14, label %18

14:                                               ; preds = %3
  %15 = load ptr, ptr %5, align 8
  %16 = load ptr, ptr %5, align 8
  %17 = call zeroext i16 @vring_avail_idx(ptr noundef %16)
  call void @vring_set_avail_event(ptr noundef %15, i16 noundef zeroext %17)
  br label %26

18:                                               ; preds = %3
  %19 = load i32, ptr %6, align 4
  %20 = icmp ne i32 %19, 0
  br i1 %20, label %21, label %23

21:                                               ; preds = %18
  %22 = load ptr, ptr %5, align 8
  call void @vring_used_flags_unset_bit(ptr noundef %22, i32 noundef 1)
  br label %25

23:                                               ; preds = %18
  %24 = load ptr, ptr %5, align 8
  call void @vring_used_flags_set_bit(ptr noundef %24, i32 noundef 1)
  br label %25

25:                                               ; preds = %23, %21
  br label %26

26:                                               ; preds = %25, %14
  %27 = load i32, ptr %6, align 4
  %28 = icmp ne i32 %27, 0
  br i1 %28, label %29, label %30

29:                                               ; preds = %26
  call void asm sideeffect "", "~{memory},~{dirflag},~{fpsr},~{flags}"() #13, !srcloc !9
  fence seq_cst
  br label %30

30:                                               ; preds = %29, %26
  ret void
}