; Function Attrs: nounwind uwtable
define dso_local void @vu_queue_set_notification(ptr noundef readonly captures(none) %0, ptr noundef captures(none) initializes((89, 90)) %1, i32 noundef %2) local_unnamed_addr #3 {
  %4 = icmp ne i32 %2, 0
  %5 = getelementptr inbounds nuw i8, ptr %1, i64 89
  %6 = zext i1 %4 to i8
  store i8 %6, ptr %5, align 1
  %7 = getelementptr i8, ptr %0, i64 120
  %.val = load i64, ptr %7, align 8
  %8 = and i64 %.val, 536870912
  %.not = icmp eq i64 %8, 0
  br i1 %.not, label %22, label %9

9:                                                ; preds = %3
  %10 = getelementptr inbounds nuw i8, ptr %1, i64 16
  %11 = load ptr, ptr %10, align 8
  %12 = getelementptr inbounds nuw i8, ptr %11, i64 2
  %13 = load i16, ptr %12, align 2
  %14 = getelementptr inbounds nuw i8, ptr %1, i64 82
  store i16 %13, ptr %14, align 2
  br i1 %4, label %15, label %vring_set_avail_event.exit

15:                                               ; preds = %9
  %16 = getelementptr inbounds nuw i8, ptr %1, i64 24
  %17 = load ptr, ptr %16, align 8
  %18 = getelementptr inbounds nuw i8, ptr %17, i64 4
  %19 = load i32, ptr %1, align 8
  %20 = zext i32 %19 to i64
  %21 = getelementptr inbounds nuw [0 x %struct.vring_used_elem], ptr %18, i64 0, i64 %20
  store i16 %13, ptr %21, align 4
  br label %29

22:                                               ; preds = %3
  %23 = getelementptr i8, ptr %1, i64 24
  %.val8 = load ptr, ptr %23, align 8
  %24 = load i16, ptr %.val8, align 2
  br i1 %4, label %25, label %27

25:                                               ; preds = %22
  %26 = and i16 %24, -2
  store i16 %26, ptr %.val8, align 2
  br label %29

27:                                               ; preds = %22
  %28 = or i16 %24, 1
  store i16 %28, ptr %.val8, align 2
  br label %vring_set_avail_event.exit

29:                                               ; preds = %15, %25
  tail call void asm sideeffect "", "~{memory},~{dirflag},~{fpsr},~{flags}"() #21, !srcloc !12
  fence seq_cst
  br label %vring_set_avail_event.exit

vring_set_avail_event.exit:                       ; preds = %27, %9, %29
  ret void
}